Certificate:
    Data:
        Version: 3 (0x2)
        Serial Number: 2 (0x2)
    Signature Algorithm: sha256WithRSAEncryption
        Issuer: O=Test Org, CN=Test Org rauc CA Development
        Validity
            Not Before: Jan  1 00:00:00 1970 GMT
            Not After : Dec 31 23:59:59 9999 GMT
        Subject: O=Test Org, CN=Test Org Development-1
        Subject Public Key Info:
            Public Key Algorithm: rsaEncryption
                Public-Key: (2048 bit)
                Modulus:
                    00:bf:43:41:bf:8d:03:70:54:4c:b4:8a:35:dd:99:
                    74:11:06:20:61:0c:cb:ae:34:c0:ac:cc:ca:76:23:
                    f7:ec:09:7c:1f:c4:ef:17:0d:0f:99:4c:81:4b:58:
                    28:02:29:80:ae:32:7d:4d:3b:ac:5e:23:d0:84:55:
                    0b:7c:1d:a7:38:27:d1:b0:11:6c:ae:af:65:1d:a2:
                    dd:9e:c5:7b:cc:e5:a0:b2:76:76:d2:9e:a0:87:cd:
                    76:0a:aa:5b:0e:4c:91:2f:c5:f9:74:49:5f:7f:e2:
                    3c:6f:df:34:03:a2:fd:28:92:15:ec:47:d1:34:72:
                    bd:f5:1b:4a:37:e3:df:32:1d:e8:1b:9d:a0:72:74:
                    30:ec:9e:6f:cf:29:76:a4:7c:ba:e2:a7:eb:a5:13:
                    7e:2d:0b:1c:40:87:79:05:92:34:42:42:43:20:c5:
                    92:88:34:92:ab:95:0f:d2:fb:19:39:c4:49:b9:15:
                    d3:06:73:3f:f5:1b:e2:91:32:33:e5:9c:39:88:80:
                    c0:cd:69:aa:f2:0a:63:70:f6:ae:e9:14:5e:ac:fa:
                    1b:c1:10:b5:9d:2f:55:f6:da:c9:86:57:62:8a:b2:
                    31:37:d8:1a:2d:91:ff:5c:e4:a3:a4:8b:ef:10:9f:
                    fc:e6:fe:15:16:0e:95:e4:17:a5:f0:ab:81:33:15:
                    01:91
                Exponent: 65537 (0x10001)
        X509v3 extensions:
            X509v3 Subject Key Identifier: 
                FD:0A:7D:D5:4E:88:98:F0:E1:B0:E3:9C:3A:CA:B7:BF:CE:A8:81:66
            X509v3 Authority Key Identifier: 
                keyid:F2:B3:64:4E:C8:F5:11:6B:C6:3D:B9:B9:B5:C5:E8:DE:33:9B:56:A6
                DirName:/O=Test Org/CN=Test Org rauc CA Development
                serial:01

            X509v3 Basic Constraints: 
                CA:FALSE
    Signature Algorithm: sha256WithRSAEncryption
         44:ab:7f:4f:ac:8b:99:b2:b0:c0:6a:fc:f8:e4:bd:fe:61:fe:
         6e:c7:a9:ea:19:36:9d:93:8d:c7:23:2b:e8:8c:84:40:14:0b:
         33:11:71:9f:77:4b:f5:e2:93:3b:f1:04:bd:49:e0:45:dc:f5:
         23:78:8b:07:70:a1:f6:01:a5:24:98:06:47:02:d9:09:0b:2e:
         3f:0c:62:4f:8b:56:a7:22:e4:0b:ca:ee:9d:61:49:f3:55:71:
         09:75:fb:a0:a5:37:49:38:50:17:56:18:b5:8f:77:ac:58:2c:
         46:b7:1a:14:3b:d7:f5:5c:9d:f7:98:33:a6:c5:5f:66:59:13:
         a1:b8:54:42:5d:f5:75:e4:ca:f6:1f:47:96:f0:2c:b6:99:db:
         c5:02:30:e9:9e:c8:19:67:f3:d5:16:c1:f5:21:68:94:3d:31:
         fe:e4:02:6a:71:47:1d:80:59:1f:45:1c:c1:b8:3f:d8:3e:19:
         87:83:a9:e8:36:b2:79:2e:0a:14:88:01:b7:e4:eb:9e:a7:f9:
         09:27:ca:3a:6f:c7:d0:6d:a6:05:88:03:17:39:be:9f:fc:d2:
         02:01:f2:62:da:0e:41:97:16:cd:dc:a6:50:a1:d1:b5:4d:4c:
         9c:24:9f:24:d8:5a:21:ec:57:2d:e0:55:ff:41:94:46:40:30:
         8b:e7:12:bc
-----BEGIN CERTIFICATE-----
MIIDfzCCAmegAwIBAgIBAjANBgkqhkiG9w0BAQsFADA6MREwDwYDVQQKDAhUZXN0
IE9yZzElMCMGA1UEAwwcVGVzdCBPcmcgcmF1YyBDQSBEZXZlbG9wbWVudDAiGA8x
OTcwMDEwMTAwMDAwMFoYDzk5OTkxMjMxMjM1OTU5WjA0MREwDwYDVQQKDAhUZXN0
IE9yZzEfMB0GA1UEAwwWVGVzdCBPcmcgRGV2ZWxvcG1lbnQtMTCCASIwDQYJKoZI
hvcNAQEBBQADggEPADCCAQoCggEBAL9DQb+NA3BUTLSKNd2ZdBEGIGEMy640wKzM
ynYj9+wJfB/E7xcND5lMgUtYKAIpgK4yfU07rF4j0IRVC3wdpzgn0bARbK6vZR2i
3Z7Fe8zloLJ2dtKeoIfNdgqqWw5MkS/F+XRJX3/iPG/fNAOi/SiSFexH0TRyvfUb
Sjfj3zId6BudoHJ0MOyeb88pdqR8uuKn66UTfi0LHECHeQWSNEJCQyDFkog0kquV
D9L7GTnESbkV0wZzP/Ub4pEyM+WcOYiAwM1pqvIKY3D2rukUXqz6G8EQtZ0vVfba
yYZXYoqyMTfYGi2R/1zko6SL7xCf/Ob+FRYOleQXpfCrgTMVAZECAwEAAaOBkTCB
jjAdBgNVHQ4EFgQU/Qp91U6ImPDhsOOcOsq3v86ogWYwYgYDVR0jBFswWYAU8rNk
Tsj1EWvGPbm5tcXo3jObVqahPqQ8MDoxETAPBgNVBAoMCFRlc3QgT3JnMSUwIwYD
VQQDDBxUZXN0IE9yZyByYXVjIENBIERldmVsb3BtZW50ggEBMAkGA1UdEwQCMAAw
DQYJKoZIhvcNAQELBQADggEBAESrf0+si5mysMBq/Pjkvf5h/m7HqeoZNp2Tjccj
K+iMhEAUCzMRcZ93S/XikzvxBL1J4EXc9SN4iwdwofYBpSSYBkcC2QkLLj8MYk+L
Vqci5AvK7p1hSfNVcQl1+6ClN0k4UBdWGLWPd6xYLEa3GhQ71/VcnfeYM6bFX2ZZ
E6G4VEJd9XXkyvYfR5bwLLaZ28UCMOmeyBln89UWwfUhaJQ9Mf7kAmpxRx2AWR9F
HMG4P9g+GYeDqeg2snkuChSIAbfk656n+Qknyjpvx9BtpgWIAxc5vp/80gIB8mLa
DkGXFs3cplCh0bVNTJwknyTYWiHsVy3gVf9BlEZAMIvnErw=
-----END CERTIFICATE-----
