Certificate:
    Data:
        Version: 3 (0x2)
        Serial Number: 1 (0x1)
    Signature Algorithm: sha256WithRSAEncryption
        Issuer: O=Test Org, CN=Test Org rauc CA Development
        Validity
            Not Before: Jan  1 00:00:00 1970 GMT
            Not After : Dec 31 23:59:59 9999 GMT
        Subject: O=Test Org, CN=Test Org rauc CA Development
        Subject Public Key Info:
            Public Key Algorithm: rsaEncryption
                Public-Key: (2048 bit)
                Modulus:
                    00:9a:9d:1f:5a:10:70:b3:d6:5a:36:df:2b:b7:19:
                    3a:15:6a:23:ca:a0:fe:35:69:88:ea:10:41:f2:e0:
                    cd:e2:aa:8a:15:2e:74:3b:3d:d0:a7:20:a5:8f:04:
                    5c:02:b6:7a:a6:11:70:12:1a:3b:6c:4b:29:9d:be:
                    90:24:a8:48:51:91:b2:71:8e:00:4e:39:5c:7f:c2:
                    20:20:78:e1:5a:e2:47:c8:15:5c:de:d0:f5:38:1f:
                    ed:32:8e:13:0b:3b:7c:2b:a3:6f:56:b9:bf:10:f3:
                    a9:6d:d5:e0:58:46:3a:b0:81:dd:32:0e:1a:30:86:
                    9b:86:18:c1:62:e0:6a:46:76:e6:57:91:0f:1e:e4:
                    7b:5b:32:b8:1f:e1:5f:b5:01:73:c8:74:c7:a9:fa:
                    05:e1:47:b2:19:69:46:76:f3:29:09:1b:bf:ab:3d:
                    63:29:3a:10:4e:49:ab:5c:d6:b0:b3:95:41:70:a4:
                    53:57:17:c1:65:8f:de:56:d6:b3:62:eb:76:ac:84:
                    ab:a5:9b:55:81:08:f5:8f:ab:59:61:64:38:27:5c:
                    90:79:28:7b:9b:94:9d:b4:79:6a:3b:80:e3:d7:84:
                    40:95:ac:8b:5f:16:50:df:06:29:3c:c8:ec:b6:a7:
                    1a:a7:d5:89:0e:b5:6e:41:9b:42:35:51:c8:36:48:
                    88:19
                Exponent: 65537 (0x10001)
        X509v3 extensions:
            X509v3 Subject Key Identifier: 
                F2:B3:64:4E:C8:F5:11:6B:C6:3D:B9:B9:B5:C5:E8:DE:33:9B:56:A6
            X509v3 Authority Key Identifier: 
                keyid:F2:B3:64:4E:C8:F5:11:6B:C6:3D:B9:B9:B5:C5:E8:DE:33:9B:56:A6
                DirName:/O=Test Org/CN=Test Org rauc CA Development
                serial:01

            X509v3 Basic Constraints: 
                CA:TRUE
    Signature Algorithm: sha256WithRSAEncryption
         49:0d:2b:07:d3:99:4d:35:fb:50:6b:e9:41:9b:5c:9a:b9:d5:
         a5:47:df:1a:d1:e5:2c:85:f4:ed:fe:5f:4f:61:de:e5:c1:ac:
         f2:16:a0:f8:fc:3c:0d:7d:ba:3d:ef:63:af:a3:50:c7:2c:e4:
         ba:67:34:41:02:42:60:d9:ab:5c:03:fb:75:c2:46:bf:70:bf:
         e1:a5:5a:9b:d4:10:32:09:98:46:b8:f6:be:ce:51:6c:11:6b:
         11:8f:69:95:f5:67:c0:1d:7c:22:8e:0a:91:e9:6c:2b:ad:b2:
         1e:79:aa:e1:35:28:10:fa:68:18:1e:0d:18:45:38:cc:89:8e:
         fa:86:54:60:17:66:c1:66:70:d9:bf:3a:89:5a:16:06:f7:66:
         25:d7:d4:cb:12:27:1d:6e:4d:63:9f:e1:21:5a:fc:26:c9:7c:
         b4:5e:8b:eb:19:cb:ca:b0:c8:30:90:2f:74:75:0a:f8:47:b9:
         04:bf:54:cd:18:28:3a:aa:e1:90:76:95:16:a3:3a:19:e6:d2:
         45:f5:67:1d:38:c0:a9:84:92:70:30:94:ee:9a:9c:f5:a2:69:
         83:81:bc:4d:f6:db:06:93:b0:28:c7:8d:03:0c:ed:ed:12:d0:
         bd:78:91:03:e5:9d:44:ea:25:32:a4:7c:a3:9b:30:32:36:3b:
         64:62:9f:fd
-----BEGIN CERTIFICATE-----
MIIDiDCCAnCgAwIBAgIBATANBgkqhkiG9w0BAQsFADA6MREwDwYDVQQKDAhUZXN0
IE9yZzElMCMGA1UEAwwcVGVzdCBPcmcgcmF1YyBDQSBEZXZlbG9wbWVudDAiGA8x
OTcwMDEwMTAwMDAwMFoYDzk5OTkxMjMxMjM1OTU5WjA6MREwDwYDVQQKDAhUZXN0
IE9yZzElMCMGA1UEAwwcVGVzdCBPcmcgcmF1YyBDQSBEZXZlbG9wbWVudDCCASIw
DQYJKoZIhvcNAQEBBQADggEPADCCAQoCggEBAJqdH1oQcLPWWjbfK7cZOhVqI8qg
/jVpiOoQQfLgzeKqihUudDs90KcgpY8EXAK2eqYRcBIaO2xLKZ2+kCSoSFGRsnGO
AE45XH/CICB44VriR8gVXN7Q9Tgf7TKOEws7fCujb1a5vxDzqW3V4FhGOrCB3TIO
GjCGm4YYwWLgakZ25leRDx7ke1syuB/hX7UBc8h0x6n6BeFHshlpRnbzKQkbv6s9
Yyk6EE5Jq1zWsLOVQXCkU1cXwWWP3lbWs2LrdqyEq6WbVYEI9Y+rWWFkOCdckHko
e5uUnbR5ajuA49eEQJWsi18WUN8GKTzI7LanGqfViQ61bkGbQjVRyDZIiBkCAwEA
AaOBlDCBkTAdBgNVHQ4EFgQU8rNkTsj1EWvGPbm5tcXo3jObVqYwYgYDVR0jBFsw
WYAU8rNkTsj1EWvGPbm5tcXo3jObVqahPqQ8MDoxETAPBgNVBAoMCFRlc3QgT3Jn
MSUwIwYDVQQDDBxUZXN0IE9yZyByYXVjIENBIERldmVsb3BtZW50ggEBMAwGA1Ud
EwQFMAMBAf8wDQYJKoZIhvcNAQELBQADggEBAEkNKwfTmU01+1Br6UGbXJq51aVH
3xrR5SyF9O3+X09h3uXBrPIWoPj8PA19uj3vY6+jUMcs5LpnNEECQmDZq1wD+3XC
Rr9wv+GlWpvUEDIJmEa49r7OUWwRaxGPaZX1Z8AdfCKOCpHpbCutsh55quE1KBD6
aBgeDRhFOMyJjvqGVGAXZsFmcNm/OolaFgb3ZiXX1MsSJx1uTWOf4SFa/CbJfLRe
i+sZy8qwyDCQL3R1CvhHuQS/VM0YKDqq4ZB2lRajOhnm0kX1Zx04wKmEknAwlO6a
nPWiaYOBvE322waTsCjHjQMM7e0S0L14kQPlnUTqJTKkfKObMDI2O2Rin/0=
-----END CERTIFICATE-----
